	.file	"ShittyJukeBox.c"
	.text
	.globl	bringMeToLife
	.section	.rodata
	.align 8
.LC0:
	.ascii	"How can you see into my eyes like open doors?\nLeading you d"
	.ascii	"own into my core\nWhere I've become so numb\nWithout a soul\n"
	.ascii	"My spirit's sleeping somewhere cold\nUntil you find it there"
	.ascii	" and lead it back home\nWake me up inside (save me)\nCall my"
	.ascii	" name and save me from the dark (wake me up)\nBid my blood t"
	.ascii	"o run (I can't wake up)\nBefore I come undone (save me)\nSav"
	.ascii	"e me from the nothing I've become\nNow that I know what I'm "
	.ascii	"without\nYou can't just leave me\nBreathe into me and make m"
	.ascii	"e real\nBring (bring) me (me) to life\nWake me up inside (sa"
	.ascii	"ve me)\nCall my name and save me from the dark (wake me up)\n"
	.ascii	"Bid my blood to run (I can't wake up)\nBefore I come undone "
	.ascii	"(save me)\nSave me from the nothing I've become\nBring me to"
	.ascii	" life\nI've been living a lie\nThere's nothing inside\nBring"
	.ascii	" me to life\nFrozen (frozen) inside without your touch\nWith"
	.ascii	"out your love darling\nOnly (only) you are the life among th"
	.ascii	"e dead\nAll of this time I can't believe I couldn't see\nKep"
	.ascii	"t in the dark but you were there in front of me\nI've been s"
	.ascii	"leeping a thousand years it seems\nGot to open my eyes to ev"
	.ascii	"erything\nWithout a thought without a voice without a soul\n"
	.ascii	"Don't let me die here\n(There must be something more) bring "
	.ascii	"me to life\nWake me up"
	.string	" inside (save me)\nCall my name and save me from the dark (wake me up)\nBid my blood to run (I can't wake up)\nBefore I come undone (save me)\nSave me from the nothing I've become\nBring me to life\nI've been living a lie\nThere's nothing inside\nBring me to life\n"
	.section	.data.rel.local,"aw"
	.align 8
	.type	bringMeToLife, @object
	.size	bringMeToLife, 8
bringMeToLife:
	.quad	.LC0
	.globl	iHateEverything
	.section	.rodata
	.align 8
.LC1:
	.ascii	"Every time we lie awake\nAfter every hit we take\nEvery feel"
	.ascii	"ing that I get\nBut I haven't missed you yet\nEvery roommate"
	.ascii	" kept awake\nBy every sigh and scream we make\nAll the feeli"
	.ascii	"ngs that I get\nBut I still don't miss you yet\nOnly when I "
	.ascii	"stop to think about it\nI hate everything about you\nWhy do "
	.ascii	"I love you?\nI hate everything about you\nWhy do I love you?"
	.ascii	"\nEvery time we lie awake\nAfter every hit we take\nEvery fe"
	.ascii	"eling that I get\nBut I haven't missed you yet\nOnly when I "
	.ascii	"stop to think about it\nI hate everything about you\nWhy do "
	.ascii	"I love you?\nI hate everything about you\nWhy do I love you?"
	.ascii	"\nOnly when I sto"
	.string	"p to think about you\nI know\nOnly when you stop to think about me\nDo you know?\nI hate everything about you\nWhy do I love you?\nYou hate everything about me\nWhy do you love me?\nI hate\nYou hate\nI hate\nYou love me\nI hate everything about you\nWhy do I love you?\n"
	.section	.data.rel.local
	.align 8
	.type	iHateEverything, @object
	.size	iHateEverything, 8
iHateEverything:
	.quad	.LC1
	.globl	myImmortal
	.section	.rodata
	.align 8
.LC2:
	.ascii	"I'm so tired of being here\nSuppressed by all my childish fe"
	.ascii	"ars\nAnd if you have to leave\nI wish that you would just le"
	.ascii	"ave\n'Cause your presence still lingers here\nAnd it won't l"
	.ascii	"eave me alone\nThese wounds won't seem to heal\nThis pain is"
	.ascii	" just too real\nThere's just too much that time cannot erase"
	.ascii	"\nWhen you cried I'd wipe away all of your tears\nWhen you'd"
	.ascii	" scream I'd fight away all of your fears\nAnd I held your ha"
	.ascii	"nd through all of these years\nBut you still have\nAll of me"
	.ascii	"\nYou used to captivate me\nBy your resonating light\nNow I'"
	.ascii	"m bound by the life you left behind\nYour face it haunts\nMy"
	.ascii	" once pleasant dreams\nYour voice it chased away\nAll the sa"
	.ascii	"nity in me\nThese wounds won't seem to heal\nThis pain is ju"
	.ascii	"st too real\nThere's just too much that time cannot erase\nW"
	.ascii	"hen you cried I'd wipe away all of your tears\nWhen you'd sc"
	.ascii	"ream I'd fight away all of your fears\nAnd I held your hand "
	.ascii	"through all of these years\nBut you still have\nAll of me\nI"
	.ascii	"'ve tried so hard to tell myself that you're go"
	.string	"ne\nBut though you're still with me\nI've been alone all along\nWhen you cried I'd wipe away all of your tears\nWhen you'd scream I'd fight away all of your fears\nAnd I held your hand through all of these years\nBut you still have\nAll of me\nAll of me\nAll of me\n"
	.section	.data.rel.local
	.align 8
	.type	myImmortal, @object
	.size	myImmortal, 8
myImmortal:
	.quad	.LC2
	.globl	howYouRemindMe
	.section	.rodata
	.align 8
.LC3:
	.ascii	"Never made it as a wise man\nI couldn't cut it as a poor man"
	.ascii	" stealing\nTired of living like a blind man\nI'm sick of sig"
	.ascii	"ht without a sense of feeling\nAnd this is how you remind me"
	.ascii	"\nThis is how you remind me\nOf what I really am\nThis is ho"
	.ascii	"w you remind me\nOf what I really am\nIt's not like you to s"
	.ascii	"ay sorry\nI was waiting on a different story\nThis time I'm "
	.ascii	"mistaken\nFor handing you a heart worth breaking\nAnd I've b"
	.ascii	"een wrong\nI've been down\nTo the bottom of every bottle\nTh"
	.ascii	"ese five words in my head\nScream \"Are we having fun yet?\""
	.ascii	"\nYeah, yeah, yeah, no no\nYeah, yeah, yeah, no no\nIt's not"
	.ascii	" like you didn't know that\nI said I love you and I swear I "
	.ascii	"still do\nAnd it must have been so bad\nCause living with hi"
	.ascii	"m must have damn near killed you\nAnd this is how you remind"
	.ascii	" me\nOf what I really am\nThis is how you remind me\nOf what"
	.ascii	" I really am\nIt's not like you to say sorry\nI was waiting "
	.ascii	"on a different story\nThis time I'm mistaken\nFor handing yo"
	.ascii	"u a heart worth breaking\nAnd I've been wrong\nI've been dow"
	.ascii	"n\nTo the bottom of every bottle\nThese five words in my hea"
	.ascii	"d\nScream \"Are we having fun yet?\"\nYeah, yeah, yeah, no n"
	.ascii	"o\nYeah, yeah, yeah, no no\nYeah, yeah, yeah, no no\nYeah, y"
	.ascii	"eah, yeah, no no\nNever made it as a wise man\nI couldn't cu"
	.ascii	"t it as a poor man stealing\nAnd this is how you remind me\n"
	.ascii	"This is how you remind me\nThis is how you remind me\nOf wha"
	.ascii	"t I really am\nThis is how you remind me\nOf what I really a"
	.ascii	"m\nIt's not like you to say sorry\nI was waiting on a differ"
	.ascii	"ent story\nThis time I'm mistaken\nFor handing you a heart w"
	.ascii	"or"
	.string	"th breaking\nAnd I've been wrong\nI've been down\nTo the bottom of every bottle\nThese five words in my head\nScream \"Are we having fun yet?\"\nYeah, yeah\nAre we having fun yet?\nYeah, yeah\nAre we having fun yet?\nYeah, yeah\nAre we having fun yet?\nYeah, yeah\nNo no\n"
	.section	.data.rel.local
	.align 8
	.type	howYouRemindMe, @object
	.size	howYouRemindMe, 8
howYouRemindMe:
	.quad	.LC3
	.globl	nirvanaLithium
	.section	.rodata
	.align 8
.LC4:
	.ascii	"I'm so happy 'cause today\nI found my friends\nThey're in my"
	.ascii	" head\nI'm so ugly, but that's okay\nMy world is nothing wit"
	.ascii	"hout your love\nI'm so happy 'cause today\nI found my friend"
	.ascii	"s\nThey're in my head\nI'm so ugly, but that's okay\nMy worl"
	.ascii	"d is nothing without your love\nI'm so happy 'cause today\nI"
	.ascii	" found my friends\nThey're in my head\nI'm so ugly, but that"
	.ascii	"'s okay\nMy world is nothing without your love\nI'm so happy"
	.ascii	" 'cause today\nI found my friends\nThey're in my head\nI'm s"
	.ascii	"o ugly, but that's okay\nMy world is nothing without your lo"
	.ascii	"ve\nYeah, yeah, yeah\nYeah, yeah, yeah\nYeah, yeah, yeah\nYe"
	.ascii	"ah, yeah, yeah\nI'm so happy 'cause today\nI found my friend"
	.ascii	"s\nThey're in my head\nI'm so ugly, but that's okay\nMy worl"
	.ascii	"d is nothing without your love\nI'm so happy 'cause today\nI"
	.ascii	" found my friends\nThey're in my head\nI'm so ugly, but that"
	.ascii	"'s okay\nMy world is nothing without your love\nYeah\nYeah\n"
	.ascii	"Yeah\nI'm so happy 'cause today\nI found my friends\nThey're"
	.ascii	" in my head\nI'm so ugly, but that's okay\nMy world is nothi"
	.ascii	"ng without your love\nI'm so happy 'cause today\nI found my "
	.ascii	"friends\nThey're in my head\nI'm so ugly, but that's okay\nM"
	.ascii	"y world is nothing without your love\nYeah, yeah, yeah\nYeah"
	.ascii	", yeah, yeah\nYeah, yeah, yeah\nYeah, yeah, yeah\nI'm so hap"
	.ascii	"py 'cause t"
	.string	"oday\nI found my friends\nThey're in my head\nI'm so ugly, but that's okay\nMy world is nothing without your love\nI'm so happy 'cause today\nI found my friends\nThey're in my head\nI'm so ugly, but that's okay\nMy world is nothing without your love\nYeah\nYeah\nYeah\n"
	.section	.data.rel.local
	.align 8
	.type	nirvanaLithium, @object
	.size	nirvanaLithium, 8
nirvanaLithium:
	.quad	.LC4
	.globl	evanescenceLithium
	.section	.rodata
	.align 8
.LC5:
	.ascii	"Lithium, don't want to lock me up inside\nLithium, don't wan"
	.ascii	"t to forget how it feels without\nLithium, I want to stay in"
	.ascii	" love with my sorrow\nDon't want to let it lay me down this "
	.ascii	"time\nDrown my will to fly\nHere in the darkness I know myse"
	.ascii	"lf\nCan't break free until I let it go\nLet me go\nDarling, "
	.ascii	"I forgive you after all\nAnything is better than to be alone"
	.ascii	"\nAnd in the end I guess I had to fall\nAlways find my place"
	.ascii	" among the ashes\nI can't hold on to me\nWonder what's wrong"
	.ascii	" with me\nLithium, don't want to lock me up inside\nLithium,"
	.ascii	" don't want to forget how it feels without\nLithium, I want "
	.ascii	"to stay in love with my sorrow\nDon't want to let it lay me "
	.ascii	"down this time\nDrown my will to fly\nHere in the darkness I"
	.ascii	" know myself\nCan't bre"
	.string	"ak free until I let it go\nLet me go\nOoh, ooh, ooh\nOoh, ooh, ooh\nOoh, ooh, ooh\nOoh, ooh, ooh\nLithium, don't want to lock me up inside\nLithium, don't want to forget how it feels without\nLithium, I want to stay in love with my sorrow\nStay in love with you\nOh\n"
	.section	.data.rel.local
	.align 8
	.type	evanescenceLithium, @object
	.size	evanescenceLithium, 8
evanescenceLithium:
	.quad	.LC5
	.globl	theUnforgiven
	.section	.rodata
	.align 8
.LC6:
	.ascii	"New blood joins this earth\nAnd quickly he's subdued\nThroug"
	.ascii	"h constant pained disgrace\nThe young boy learns their rules"
	.ascii	"\nWith time the child draws in\nThis whipping boy done wrong"
	.ascii	"\nDeprived of all his thoughts\nThe young man struggles on a"
	.ascii	"nd on he's known\nA vow unto his own\nThat never from this d"
	.ascii	"ay\nHis will they'll take away\nWhat I've felt\nWhat I've kn"
	.ascii	"own\nNever shined through in what I've shown\nNever be\nNeve"
	.ascii	"r see\nWon't see what might have been\nWhat I've felt\nWhat "
	.ascii	"I've known\nNever shined through in what I've shown\nNever f"
	.ascii	"ree\nNever me\nSo I dub thee unforgiven\nThey dedicate their"
	.ascii	" lives\nTo running all of his\nHe tries to please them all\n"
	.ascii	"This bitter man he is\nThroughout his life the same\nHe's ba"
	.ascii	"ttled constantly\nThis fight he cannot win\nA tired man they"
	.ascii	" see no longer cares\nThe old man then prepares\nTo die regr"
	.ascii	"etfully\nThat old man here is me\nWhat I've felt\nWhat I've "
	.ascii	"known\nNever shined through in what I've shown\nNever be\nNe"
	.ascii	"ver see\nWon't see what might have been\nWhat I've felt\nWha"
	.ascii	"t I've known\nNever shined through in what I've shown\nNever"
	.ascii	" free\nNever me\nSo I dub thee unforgiven\nWhat I've felt\nW"
	.ascii	"hat I've known\nNever shined through in what I've shown\nNev"
	.ascii	"er be\nNever see\nWon't see what might have been\nWhat I've "
	.ascii	"felt\nWhat I've known\nNever shined throug"
	.string	"h in what I've shown\nNever free\nNever me\nSo I dub thee unforgiven\nNever free\nNever me\nSo I dub thee unforgiven\nYou labeled me\nI'll label you\nSo I dub thee unforgiven\nNever free\nNever me\nSo I dub thee unforgiven\nNever free\nNever me\nSo I dub thee unforgiven\n"
	.section	.data.rel.local
	.align 8
	.type	theUnforgiven, @object
	.size	theUnforgiven, 8
theUnforgiven:
	.quad	.LC6
	.globl	fadeToBlack
	.section	.rodata
	.align 8
.LC7:
	.ascii	"Life it seems will fade away\nDrifting further every day\nGe"
	.ascii	"tting lost within myself\nNothing matters, no one else\nI ha"
	.ascii	"ve lost the will to live\nSimply nothing more to give\nThere"
	.ascii	" is nothing more for me\nNeed the end to set me free\nThings"
	.ascii	" not what they used to be\nMissing one inside of me\nDeathly"
	.ascii	" lost, this can't be real\nCannot stand this hell I feel\nEm"
	.ascii	"ptiness is filling me\nTo the point of agon"
	.string	"y\nGrowing darkness taking dawn\nI was me, but now he's gone\nNo one but me can save myself, but it's too late\nNow I can't think, think why I should even try\nYesterday seems as though it never existed\nDeath greets me warm, now I will just say goodbye\nGoodbye\n"
	.section	.data.rel.local
	.align 8
	.type	fadeToBlack, @object
	.size	fadeToBlack, 8
fadeToBlack:
	.quad	.LC7
	.globl	rickroll
	.section	.rodata
	.align 8
.LC8:
	.ascii	"We're no strangers to love\nYou know the rules and so do I\n"
	.ascii	"A full commitment's what I'm thinking of\nYou wouldn't get t"
	.ascii	"his from any other guy\nI just wanna tell you how I'm feelin"
	.ascii	"g\nGotta make you understand\nNever gonna give you up\nNever"
	.ascii	" gonna let you down\nNever gonna run around and desert you\n"
	.ascii	"Never gonna make you cry\nNever gonna say goodbye\nNever gon"
	.ascii	"na tell a lie and hurt you\nNever gonna give you up\nNever g"
	.ascii	"onna let you down\nNever gonna run around and desert you\nNe"
	.ascii	"ver gonna make you cry\nNever gonna say goodbye\nNever gonna"
	.ascii	" tell a lie and hurt you\nWe've known each other for so long"
	.ascii	"\nYour heart's been aching but you're too shy to say it\nIns"
	.ascii	"ide we both know what's been going on\nWe know the game and "
	.ascii	"we're gonna play it\nAnd if you ask me how I'm feeling\nDon'"
	.ascii	"t tell me you're too blind to see\nNever gonna give you up\n"
	.ascii	"Never gonna let you down\nNever gonna run around and desert "
	.ascii	"you\nN"
	.string	"ever gonna make you cry\nNever gonna say goodbye\nNever gonna tell a lie and hurt you\nNever gonna give you up\nNever gonna let you down\nNever gonna run around and desert you\nNever gonna make you cry\nNever gonna say goodbye\nNever gonna tell a lie and hurt you\n"
	.section	.data.rel.local
	.align 8
	.type	rickroll, @object
	.size	rickroll, 8
rickroll:
	.quad	.LC8
	.globl	angelWithAShotgun
	.section	.rodata
	.align 8
.LC9:
	.ascii	"I'm an angel with a shotgun\nFighting 'til the war's won\nI "
	.ascii	"don't care if heaven won't take me back\nI'll throw away my "
	.ascii	"faith, babe, just to keep you safe\nDon't you know you're ev"
	.ascii	"erything I have?\nAnd I wanna live, not just survive\nTonigh"
	.ascii	"t\nWe'll be the hunters\nWe'll be the hunted\nWe'll be the o"
	.ascii	"nes who never back down\nWe'll be the ones who never give up"
	.ascii	"\nWe'll be the ones who never stop\nWe'll be the ones who ne"
	.ascii	"ver drop\nWe'll be the ones who never fall\nWe'll be the one"
	.ascii	"s who stand tall\nI'm an angel with a shotgun\nFighting 'til"
	.ascii	" the war's won\nI don't care if heaven won't take me back\nI"
	.ascii	"'ll throw away my faith, babe, just to keep you safe\nDon't "
	.ascii	"you know you're everything I have?\nAnd I wanna live, not ju"
	.ascii	"st survive\nTonight\nWe'll be the hunters\nWe'll be the hunt"
	.ascii	"ed\nWe'll be the ones who never back down\nWe'll be the ones"
	.ascii	" who never give up\nWe'll be the ones who never stop\nWe'll "
	.ascii	"be the ones who never drop\nWe'll be the ones who never fall"
	.ascii	"\nWe'll be the "
	.string	"ones who stand tall\nI'm an angel with a shotgun\nFighting 'til the war's won\nI don't care if heaven won't take me back\nI'll throw away my faith, babe, just to keep you safe\nDon't you know you're everything I have?\nAnd I wanna live, not just survive\nTonight\n"
	.section	.data.rel.local
	.align 8
	.type	angelWithAShotgun, @object
	.size	angelWithAShotgun, 8
angelWithAShotgun:
	.quad	.LC9
	.globl	rockefellerStreet
	.section	.rodata
	.align 8
.LC10:
	.ascii	"Daylight is fading away, night silhouettes in the sky\nLED l"
	.ascii	"ights are flashing on towers\nIt's Manhattan's magical time\n"
	.ascii	"Ballerinas dancing the Swan Lake\nOn a river made of diamond"
	.ascii	"s and pearls\nEverything's a little bit weird now\nBecause t"
	.ascii	"onight it is showtime\nIn the middle of the street life\nAll"
	.ascii	" we celebrate are good times\nBecause tonight it is showtime"
	.ascii	"\nCome and walk with me\n1273 down the Rockefeller Street\nL"
	.ascii	"ife is marching on, do you feel that?\n1273 down the Rockefe"
	.ascii	"ller Street\nEverything is more than surreal\nAlright, let's"
	.ascii	" go, na zdorovje girls\nOld school Hollywood stars\nParty ci"
	.ascii	"nderellas are here\nThey come for fun and for fear\nBecause "
	.ascii	"tonight it is showtime\nIn the middle of the street life\nAl"
	.ascii	"l we celebrate are good times\nBecause tonight it is showtim"
	.ascii	"e\nCome and walk with me\n1273 down the Rockefeller Street\n"
	.ascii	"Life is marching on, do you feel that?"
	.string	"\n1273 down the Rockefeller Street\nEverything is more than surreal\nSo let's go, na zdorovje girls\nCome and walk with me\n1273 down the Rockefeller Street\nLife is marching on, do you feel that?\n1273 down the Rockefeller Street\nEverything is more than surreal\n"
	.section	.data.rel.local
	.align 8
	.type	rockefellerStreet, @object
	.size	rockefellerStreet, 8
rockefellerStreet:
	.quad	.LC10
	.globl	prettyRaveGirl
	.section	.rodata
	.align 8
.LC11:
	.ascii	"I know this pretty rave girl\nAlways think about her\nAnd wh"
	.ascii	"en she says hi to me\nButterflies go right through me\nAnd w"
	.ascii	"hen I see her dancing\nWanna take a chance in\nGetting a lit"
	.ascii	"tle closer\nAnd maybe get to know her\nPretty rave girl\nI k"
	.ascii	"now this pretty rave girl\nAlways think about her\nAnd when "
	.ascii	"she says hi to me\nButterflies go right through me\nAnd when"
	.ascii	" I see her dancing\nWanna take a chance in\nGetting a little"
	.ascii	" closer\nAnd maybe get to know her\nPretty rave girl\nPretty"
	.ascii	" rave girl\nPretty rave girl\nPretty rave girl\nPretty rave "
	.ascii	"girl\nPretty rave girl\nI know this pretty rave girl\nAlways"
	.ascii	" think about her\nAnd w"
	.string	"hen she says hi to me\nButterflies go right through me\nAnd when I see her dancing\nWanna take a chance in\nGetting a little closer\nAnd maybe get to know her\nPretty rave girl\nPretty rave girl\nPretty rave girl\nPretty rave girl\nPretty rave girl\nPretty rave girl\n"
	.section	.data.rel.local
	.align 8
	.type	prettyRaveGirl, @object
	.size	prettyRaveGirl, 8
prettyRaveGirl:
	.quad	.LC11
	.globl	takeAHint
	.section	.rodata
	.align 8
.LC12:
	.ascii	"Why am I always hit on by the boys I never like?\nI can alwa"
	.ascii	"ys see 'em coming, from the left or from the right\nI don't "
	.ascii	"want to be a priss, I'm just try'na be polite\nBut it always"
	.ascii	" seems to bite me in the...\nAsk me for my number, yeah, you"
	.ascii	" put me on the spot\nYou think that we should hook-up, but I"
	.ascii	" think that we should not\nYou had me at hello, then you ope"
	.ascii	"ned up your mouth\nAnd that is when it started going south\n"
	.ascii	"Oh!\nGet your hands off my hips, 'fore I'll punch you in the"
	.ascii	" lips\nStop your staring at my... Hey!\nTake a hint, take a "
	.ascii	"hint\nNo you can't buy me a drink, let me tell you what I th"
	.ascii	"ink\nI think you could use a mint\nTake a hint, take a hint\n"
	.ascii	"T-take a hint, take a hint\nI hate you like I love you in th"
	.ascii	"e same sentence\nI can't be the one to fill the space in you"
	.ascii	"r bed, yeah\nI guess you think you still got me\nI could hav"
	.ascii	"e you if I wanted\nBut sorry, it ain't happening, oh\nOh!\nG"
	.ascii	"et your hands off my hips, 'fore I'll punch you in the lips\n"
	.ascii	"Stop your staring at my... Hey!\nTake a hint, take a hint\nN"
	.ascii	"o you can't buy me a drink, let me tell you what I think\nI "
	.ascii	"think you could use a mint\nTake a hint, take a hint\nWhat a"
	.ascii	"bout \"no\" don't you get?\nSo go and tell your friends\nI'm"
	.ascii	" not really interested\nIt's about time that you're leavin'\n"
	.ascii	"I'm gonna count to three and\nOpen my eyes and\nYou'll be go"
	.ascii	"ne\nOne\nGet your hands off my...\nTwo\nOr I'll punch you in"
	.ascii	" the...\nThree\nStop your staring at my... Hey!\nTake a hint"
	.ascii	", take a hint\nI am not your missing link\nLet"
	.string	" me tell you what I think\nI think you could use a mint\nTake a hint, take a hint\nTake a hint, take a hint\nWoah!\nGet your hands off my hips, 'fore I'll punch you in the lips\nStop your staring at my... Hey!\nTake a hint, take a hint\nT-take a hint, take a hint\n"
	.section	.data.rel.local
	.align 8
	.type	takeAHint, @object
	.size	takeAHint, 8
takeAHint:
	.quad	.LC12
	.globl	howToBeAHeartbreaker
	.section	.rodata
	.align 8
.LC13:
	.ascii	"Rule number one, is that you gotta have fun\nBut baby when y"
	.ascii	"ou're done, you gotta be the first to run\nRule number two, "
	.ascii	"just don't get attached to\nSomebody you could lose\nSo le-l"
	.ascii	"et me tell you\nThis is how to be a heartbreaker\nBoys they "
	.ascii	"like a little danger\nWe'll get him falling for a stranger\n"
	.ascii	"A player, singing I lo-lo-lo love you\nHow to be a heartbrea"
	.ascii	"ker\nBoys they like the look of danger\nWe'll get him fallin"
	.ascii	"g for a stranger\nA player, singing I lo-lo-lo love you\nAt "
	.ascii	"least I think I do\nCause I lo-lo-lo love you\nRule number t"
	.ascii	"hree, wear your heart on your cheek\nBut never on your sleev"
	.ascii	"e, unless you wanna taste defeat\nRule number four, gotta be"
	.ascii	" looking pure\nKiss him goodbye at the door, and leave him w"
	.ascii	"anting more, more\nThis is how to be a heartbreaker\nBoys th"
	.ascii	"ey like a little danger\nWe'll get him falling for a strange"
	.ascii	"r\nA player, singing I lo-lo-lo love you\nHow to be a heartb"
	.ascii	"reaker\nBoys they like the look of danger\nWe'll get him fal"
	.ascii	"ling for a stranger\nA player, singing I lo-lo-lo love you\n"
	.ascii	"At least I think I do\nCause I lo-lo-lo love you\nGirls, we "
	.ascii	"do, whatever it will take\nCause girls don't want, we don't "
	.ascii	"want our hearts to break in two\nSo it's better to be fake, "
	.ascii	"can't risk losing\nIn love again, babe\nThis is how to be a "
	.ascii	"heartbreaker\nBoys they like a little danger\nW"
	.string	"e'll get him falling for a stranger\nA player, singing I lo-lo-lo love you\nHow to be a heartbreaker\nBoys they like the look of danger\nWe'll get him falling for a stranger\nA player, singing I lo-lo-lo love you\nCause I lo-lo-lo love you\nAt least I think I do\n"
	.section	.data.rel.local
	.align 8
	.type	howToBeAHeartbreaker, @object
	.size	howToBeAHeartbreaker, 8
howToBeAHeartbreaker:
	.quad	.LC13
	.globl	teeth
	.section	.rodata
	.align 8
.LC14:
	.ascii	"Some days, you're the only thing I know\nOnly thing that's b"
	.ascii	"urning when the nights grow cold\nCan't look away, can't loo"
	.ascii	"k away\nBeg you to stay, beg you to stay, yeah\nSometimes, y"
	.ascii	"ou're a stranger in my bed\nDon't know if you love me or you"
	.ascii	" want me dead\nPush me away, push me away\nThen beg me to st"
	.ascii	"ay, beg me to stay, yeah\nCall me in the morning to apologiz"
	.ascii	"e\nEvery little lie gives me butterflies\nSomething in the w"
	.ascii	"ay you're looking through my eyes\nDon't know if I'm gonna m"
	.ascii	"ake it out alive\nFight so dirty, but your love so sweet\nTa"
	.ascii	"lk so pretty, but your heart got teeth\nLate night devil, pu"
	.ascii	"t your hands on me\nAnd never, never, never ever let go\nFig"
	.ascii	"ht so dirty, but your love so sweet\nTalk so pretty, but you"
	.ascii	"r heart got teeth\nLate night devil, put your hands on me\nA"
	.ascii	"nd never, never, never ever let go\nSome days, you're the be"
	.ascii	"st thing in my life\nSometimes, you're the worst, you stab m"
	.ascii	"e in the back\nCan't look away, can't look away\nBeg you to "
	.ascii	"stay, beg you to stay, yeah\nCall me in the morning to apolo"
	.ascii	"gize\nEvery little lie gives me butterflies\nSomething in th"
	.ascii	"e way you're looking through my eyes\nDon't know if I'm gonn"
	.ascii	"a make it out alive\nFight so dirty, but your love so sweet\n"
	.ascii	"Talk so pretty, but your heart got teeth\nLate night devil, "
	.ascii	"put your hands on me\nAnd never, never, never ever let go\nF"
	.ascii	"ight so dirty, but your love so sweet\nTalk so pretty, but y"
	.ascii	"our heart got teeth\nLate night devil, put your hands on me\n"
	.ascii	"And never, never, never ever let go\nBlood on my shirt, rose"
	.ascii	" in my hand\nYou're looking at me like you don't know who I "
	.ascii	"am\nBlood on my shirt, heart in my hand\nStill beating\nFigh"
	.ascii	"t so dirty, but your love so sweet\nTalk so pretty, but your"
	.ascii	" heart got teeth\nLate night devil, put yo"
	.string	"ur hands on me\nAnd never, never, never ever let go\nFight so dirty, but your love so sweet\nTalk so pretty, but your heart got teeth\nLate night devil, put your hands on me\nAnd never, never, never ever let go\nTeeth\nTeeth\nTeeth\nNever, never, never ever let go\n"
	.section	.data.rel.local
	.align 8
	.type	teeth, @object
	.size	teeth, 8
teeth:
	.quad	.LC14
	.globl	thunder
	.section	.rodata
	.align 8
.LC15:
	.ascii	"Just a young gun with a quick fuse\nI was uptight, wanna let"
	.ascii	" loose\nI was dreaming of bigger things\nAnd wanna leave my "
	.ascii	"own life behind\nNot a yes-sir, not a follower\nFit the box,"
	.ascii	" fit the mold\nHave a seat in the foyer, take a number\nI wa"
	.ascii	"s lightning before the thunder\nThunder, thunder\nThunder, t"
	.ascii	"hun-, thunder\nThun-thun-thunder, thunder, thunder\nThunder,"
	.ascii	" thun-, thunder\nThun-thun-thunder, thunder\nThunder, feel t"
	.ascii	"he thunder\nLightning then the thunder\nThunder, feel the th"
	.ascii	"under\nLightning then the thunder\nThunder, thunder\nThunder"
	.ascii	"\nKids were laughing in my classes\nWhile I was scheming for"
	.ascii	" the masses\nWho do you think you are?\nDreaming 'bout being"
	.ascii	" a big star\nYou say you're basic, you say you're easy\nYou'"
	.ascii	"re always riding in the back seat\nNow I'm smiling from the "
	.ascii	"stage while\nYou were clapping in the nosebleeds\nThunder, t"
	.ascii	"hunder\nThunder, thun-, thunder\nThun-thun-thunder, thunder,"
	.ascii	" thunder\nThunder, thun-, thunder\nThun-thun-thunder, thunde"
	.ascii	"r\nThunder, feel the thunder\nLightning then the thunder\nTh"
	.ascii	"under, feel the thunder\nLightning then the thunder\nThunder"
	.ascii	", thunder\nThunder\nThunder, feel the thunder\nLightning the"
	.ascii	"n the thunder, thunder\nThunder, feel the thunder\nLightning"
	.ascii	" then the thunder, thunder\nThunder, feel the thunder\nLight"
	.ascii	"ning then the thunder, thunder\nThunder, feel the thunder (n"
	.ascii	"ever give up, never give up)\nLightning then the thunder, th"
	.ascii	"under (never give up, never give "
	.string	"up)\nThunder, feel the thunder (never give up, never give up)\nLightning then the thunder, thunder (never give up, never give up)\nThunder, thunder\nThunder, thun-, thunder\nThun-thun-thunder, thunder, thunder\nThunder, thun-, thunder\nThun-thun-thunder, thunder\n"
	.section	.data.rel.local
	.align 8
	.type	thunder, @object
	.size	thunder, 8
thunder:
	.quad	.LC15
	.globl	lightItUp
	.section	.rodata
	.align 8
.LC16:
	.ascii	"Just like the street lights lit this town\nLike a fire in a "
	.ascii	"blaze, gotta burn it down\nCan't be afraid to live this out\n"
	.ascii	"We got this far don't know how\nI see danger in your eyes\nT"
	.ascii	"hey know we'll burn down the night\nComing just like the sun"
	.ascii	"rise\nYou know that we gonna light it up\nBabe, tonight we g"
	.ascii	"onna light it up\nBabe, tonight we gonna light it up\nJust l"
	.ascii	"ike the sunrise, we gonna light it up\nNow\nLight it up, lig"
	.ascii	"ht it up\nWe light it, light it up\nJust like a spark that's"
	.ascii	" breaking out\nCan't make it stop, can't turn back now\nWe k"
	.ascii	"now that's there no room for doubt\nNo we can't turn back no"
	.ascii	"w\nI see danger in your eyes\nThey know we"
	.string	"'ll burn down the night\nComing just like the sunrise\nYou know that we gonna light it up\nBabe, tonight we gonna light it up\nBabe, tonight we gonna light it up\nJust like the sunrise, we gonna light it up\nNow\nLight it up, light it up\nWe light it, light it up\n"
	.section	.data.rel.local
	.align 8
	.type	lightItUp, @object
	.size	lightItUp, 8
lightItUp:
	.quad	.LC16
	.globl	genre_menus
	.align 16
	.type	genre_menus, @object
	.size	genre_menus, 24
genre_menus:
	.quad	0
	.quad	emoInput
	.quad	nightcoreInput
	.globl	genres
	.section	.rodata
.LC17:
	.string	"2000s Emo Music"
.LC18:
	.string	"2000s Nightcore ADHD"
	.section	.data.rel.local
	.align 16
	.type	genres, @object
	.size	genres, 16
genres:
	.quad	.LC17
	.quad	.LC18
	.text
	.globl	main
	.type	main, @function
main:
.LFB6:
	.cfi_startproc
	endbr64
	pushq	%rbp
	.cfi_def_cfa_offset 16
	.cfi_offset 6, -16
	movq	%rsp, %rbp
	.cfi_def_cfa_register 6
	subq	$16, %rsp
	movl	$0, %edi
	call	time@PLT
	movl	%eax, %edi
	call	srand@PLT
	movq	stdout(%rip), %rax
	movl	$0, %ecx
	movl	$2, %edx
	movl	$0, %esi
	movq	%rax, %rdi
	call	setvbuf@PLT
	leaq	sigintHandler(%rip), %rax
	movq	%rax, %rsi
	movl	$2, %edi
	call	signal@PLT
.L33:
	call	genreMenu
	movl	%eax, -8(%rbp)
	cmpl	$0, -8(%rbp)
	je	.L33
	movl	-8(%rbp), %eax
	cltq
	leaq	0(,%rax,8), %rdx
	leaq	genre_menus(%rip), %rax
	movq	(%rdx,%rax), %rdx
	movl	$0, %eax
	call	*%rdx
	movl	%eax, -4(%rbp)
	cmpl	$12, -4(%rbp)
	jg	.L3
	movl	-4(%rbp), %eax
	subl	$1, %eax
	cmpl	$7, %eax
	ja	.L33
	movl	%eax, %eax
	leaq	0(,%rax,4), %rdx
	leaq	.L6(%rip), %rax
	movl	(%rdx,%rax), %eax
	cltq
	leaq	.L6(%rip), %rdx
	addq	%rdx, %rax
	notrack jmp	*%rax
	.section	.rodata
	.align 4
	.align 4
.L6:
	.long	.L12-.L6
	.long	.L11-.L6
	.long	.L10-.L6
	.long	.L9-.L6
	.long	.L8-.L6
	.long	.L7-.L6
	.long	.L33-.L6
	.long	.L5-.L6
	.text
.L12:
	movq	angelWithAShotgun(%rip), %rax
	movq	%rax, %rdi
	call	epilepsy_typewriter
	jmp	.L2
.L11:
	movq	rockefellerStreet(%rip), %rax
	movq	%rax, %rdi
	call	epilepsy_typewriter
	jmp	.L2
.L10:
	movq	teeth(%rip), %rax
	movq	%rax, %rdi
	call	epilepsy_typewriter
	jmp	.L2
.L9:
	movq	thunder(%rip), %rax
	movq	%rax, %rdi
	call	epilepsy_typewriter
	jmp	.L2
.L8:
	movq	takeAHint(%rip), %rax
	movq	%rax, %rdi
	call	epilepsy_typewriter
	jmp	.L2
.L7:
	movq	howToBeAHeartbreaker(%rip), %rax
	movq	%rax, %rdi
	call	epilepsy_typewriter
	jmp	.L2
.L5:
	movq	prettyRaveGirl(%rip), %rax
	movq	%rax, %rdi
	call	epilepsy_typewriter
	jmp	.L2
.L3:
	cmpl	$53, -4(%rbp)
	jle	.L13
	movl	-4(%rbp), %eax
	movslq	%eax, %rdx
	imulq	$1296593901, %rdx, %rdx
	shrq	$32, %rdx
	movl	%edx, %ecx
	sarl	$4, %ecx
	cltd
	subl	%edx, %ecx
	imull	$53, %ecx, %edx
	subl	%edx, %eax
	movl	%eax, -4(%rbp)
	movl	-4(%rbp), %eax
	subl	$1, %eax
	cmpl	$7, %eax
	ja	.L33
	movl	%eax, %eax
	leaq	0(,%rax,4), %rdx
	leaq	.L16(%rip), %rax
	movl	(%rdx,%rax), %eax
	cltq
	leaq	.L16(%rip), %rdx
	addq	%rdx, %rax
	notrack jmp	*%rax
	.section	.rodata
	.align 4
	.align 4
.L16:
	.long	.L23-.L16
	.long	.L22-.L16
	.long	.L21-.L16
	.long	.L20-.L16
	.long	.L19-.L16
	.long	.L18-.L16
	.long	.L17-.L16
	.long	.L15-.L16
	.text
.L23:
	movq	bringMeToLife(%rip), %rax
	movq	%rax, %rdi
	call	epilepsy_typewriter
	jmp	.L2
.L22:
	movq	evanescenceLithium(%rip), %rax
	movq	%rax, %rdi
	call	epilepsy_typewriter
	jmp	.L2
.L21:
	movq	myImmortal(%rip), %rax
	movq	%rax, %rdi
	call	epilepsy_typewriter
	jmp	.L2
.L20:
	movq	iHateEverything(%rip), %rax
	movq	%rax, %rdi
	call	epilepsy_typewriter
	jmp	.L2
.L19:
	movq	theUnforgiven(%rip), %rax
	movq	%rax, %rdi
	call	epilepsy_typewriter
	jmp	.L2
.L18:
	movq	fadeToBlack(%rip), %rax
	movq	%rax, %rdi
	call	epilepsy_typewriter
	jmp	.L2
.L17:
	movq	howYouRemindMe(%rip), %rax
	movq	%rax, %rdi
	call	epilepsy_typewriter
	jmp	.L2
.L15:
	movq	nirvanaLithium(%rip), %rax
	movq	%rax, %rdi
	call	epilepsy_typewriter
	jmp	.L2
.L13:
	movl	-4(%rbp), %edx
	movslq	%edx, %rax
	imulq	$1321528399, %rax, %rax
	shrq	$32, %rax
	movl	%eax, %ecx
	sarl	$2, %ecx
	movl	%edx, %eax
	sarl	$31, %eax
	subl	%eax, %ecx
	movl	%ecx, %eax
	addl	%eax, %eax
	addl	%ecx, %eax
	sall	$2, %eax
	addl	%ecx, %eax
	subl	%eax, %edx
	movl	%edx, -4(%rbp)
	movl	-4(%rbp), %eax
	subl	$1, %eax
	cmpl	$7, %eax
	ja	.L33
	movl	%eax, %eax
	leaq	0(,%rax,4), %rdx
	leaq	.L25(%rip), %rax
	movl	(%rdx,%rax), %eax
	cltq
	leaq	.L25(%rip), %rdx
	addq	%rdx, %rax
	notrack jmp	*%rax
	.section	.rodata
	.align 4
	.align 4
.L25:
	.long	.L32-.L25
	.long	.L31-.L25
	.long	.L30-.L25
	.long	.L29-.L25
	.long	.L28-.L25
	.long	.L27-.L25
	.long	.L26-.L25
	.long	.L24-.L25
	.text
.L32:
	movq	bringMeToLife(%rip), %rax
	movq	%rax, %rdi
	call	typewriter
	jmp	.L2
.L31:
	movq	evanescenceLithium(%rip), %rax
	movq	%rax, %rdi
	call	typewriter
	jmp	.L2
.L30:
	movq	myImmortal(%rip), %rax
	movq	%rax, %rdi
	call	typewriter
	jmp	.L2
.L29:
	movq	iHateEverything(%rip), %rax
	movq	%rax, %rdi
	call	typewriter
	jmp	.L2
.L28:
	movq	theUnforgiven(%rip), %rax
	movq	%rax, %rdi
	call	typewriter
	jmp	.L2
.L27:
	movq	fadeToBlack(%rip), %rax
	movq	%rax, %rdi
	call	typewriter
	jmp	.L2
.L26:
	movq	howYouRemindMe(%rip), %rax
	movq	%rax, %rdi
	call	typewriter
	jmp	.L2
.L24:
	movq	nirvanaLithium(%rip), %rax
	movq	%rax, %rdi
	call	typewriter
	nop
.L2:
	jmp	.L33
	.cfi_endproc
.LFE6:
	.size	main, .-main
	.section	.rodata
.LC19:
	.string	"\033[H\033[J"
.LC20:
	.string	"\033[?25h"
	.text
	.globl	sigintHandler
	.type	sigintHandler, @function
sigintHandler:
.LFB7:
	.cfi_startproc
	endbr64
	pushq	%rbp
	.cfi_def_cfa_offset 16
	.cfi_offset 6, -16
	movq	%rsp, %rbp
	.cfi_def_cfa_register 6
	subq	$32, %rsp
	movl	%edi, -20(%rbp)
	call	rand@PLT
	movl	%eax, %ecx
	movslq	%ecx, %rax
	imulq	$954437177, %rax, %rax
	shrq	$32, %rax
	movl	%eax, %edx
	sarl	%edx
	movl	%ecx, %eax
	sarl	$31, %eax
	subl	%eax, %edx
	movl	%edx, %eax
	sall	$3, %eax
	addl	%edx, %eax
	subl	%eax, %ecx
	movl	%ecx, %edx
	leal	1(%rdx), %eax
	movl	%eax, -4(%rbp)
	cmpl	$3, -4(%rbp)
	jne	.L35
	leaq	.LC19(%rip), %rax
	movq	%rax, %rdi
	movl	$0, %eax
	call	printf@PLT
	movl	$5000, %edi
	call	usleep@PLT
	movq	rickroll(%rip), %rax
	movq	%rax, %rdi
	call	epilepsy_typewriter
.L35:
	leaq	.LC19(%rip), %rax
	movq	%rax, %rdi
	movl	$0, %eax
	call	printf@PLT
	leaq	.LC20(%rip), %rax
	movq	%rax, %rdi
	movl	$0, %eax
	call	printf@PLT
	movl	$0, %edi
	call	exit@PLT
	.cfi_endproc
.LFE7:
	.size	sigintHandler, .-sigintHandler
	.section	.rodata
	.align 8
.LC21:
	.string	"Bring Me To Life - Evanescence"
.LC22:
	.string	"Lithium - Evanescence"
.LC23:
	.string	"My Immortal - Evanescence"
	.align 8
.LC24:
	.string	"I Hate Everything About You - Three Days Grace"
.LC25:
	.string	"Unforgiven - Metallica"
.LC26:
	.string	"Fade To Black - Metallica"
	.align 8
.LC27:
	.string	"How You Remind Me - Nickelback"
.LC28:
	.string	"Lithium - Nirvana"
.LC29:
	.string	"\033[H\033[J\033[1m"
.LC30:
	.string	"%d)%s\n"
.LC31:
	.string	"\033[0m"
	.align 8
.LC32:
	.string	"Please select a song(1-%d) or Ctrl+C to exit:"
.LC33:
	.string	"%d"
	.align 8
.LC34:
	.string	"Bro...either try not to be a idiot or Delta the fuck out"
.LC35:
	.string	"Want it to be RGB?(y/n):"
.LC36:
	.string	"%c"
.LC37:
	.string	"Fuck you.Sincerely..."
	.text
	.globl	emoInput
	.type	emoInput, @function
emoInput:
.LFB8:
	.cfi_startproc
	endbr64
	pushq	%rbp
	.cfi_def_cfa_offset 16
	.cfi_offset 6, -16
	movq	%rsp, %rbp
	.cfi_def_cfa_register 6
	subq	$112, %rsp
	movq	%fs:40, %rax
	movq	%rax, -8(%rbp)
	xorl	%eax, %eax
	movl	$-1, -100(%rbp)
	leaq	.LC21(%rip), %rax
	movq	%rax, -80(%rbp)
	leaq	.LC22(%rip), %rax
	movq	%rax, -72(%rbp)
	leaq	.LC23(%rip), %rax
	movq	%rax, -64(%rbp)
	leaq	.LC24(%rip), %rax
	movq	%rax, -56(%rbp)
	leaq	.LC25(%rip), %rax
	movq	%rax, -48(%rbp)
	leaq	.LC26(%rip), %rax
	movq	%rax, -40(%rbp)
	leaq	.LC27(%rip), %rax
	movq	%rax, -32(%rbp)
	leaq	.LC28(%rip), %rax
	movq	%rax, -24(%rbp)
	movq	$0, -16(%rbp)
	movl	$9, -92(%rbp)
	movl	$0, -96(%rbp)
	leaq	.LC29(%rip), %rax
	movq	%rax, %rdi
	movl	$0, %eax
	call	printf@PLT
	jmp	.L37
.L38:
	movl	-96(%rbp), %eax
	cltq
	movq	-80(%rbp,%rax,8), %rax
	movl	-96(%rbp), %edx
	leal	1(%rdx), %ecx
	movq	%rax, %rdx
	movl	%ecx, %esi
	leaq	.LC30(%rip), %rax
	movq	%rax, %rdi
	movl	$0, %eax
	call	printf@PLT
	movl	$55555, %edi
	call	usleep@PLT
	addl	$1, -96(%rbp)
.L37:
	movl	-96(%rbp), %eax
	cltq
	movq	-80(%rbp,%rax,8), %rax
	testq	%rax, %rax
	jne	.L38
	leaq	.LC31(%rip), %rax
	movq	%rax, %rdi
	movl	$0, %eax
	call	printf@PLT
	movl	-92(%rbp), %eax
	subl	$1, %eax
	movl	%eax, %esi
	leaq	.LC32(%rip), %rax
	movq	%rax, %rdi
	movl	$0, %eax
	call	printf@PLT
	leaq	-100(%rbp), %rax
	movq	%rax, %rsi
	leaq	.LC33(%rip), %rax
	movq	%rax, %rdi
	movl	$0, %eax
	call	__isoc99_scanf@PLT
	cmpl	$1, %eax
	jne	.L53
	movl	-100(%rbp), %eax
	testl	%eax, %eax
	jle	.L53
	movl	-100(%rbp), %eax
	cmpl	%eax, -92(%rbp)
	jge	.L54
.L53:
	nop
.L42:
	call	getchar@PLT
	movl	%eax, -84(%rbp)
	cmpl	$10, -84(%rbp)
	je	.L41
	cmpl	$-1, -84(%rbp)
	jne	.L42
.L41:
	leaq	.LC34(%rip), %rax
	movq	%rax, %rdi
	call	puts@PLT
	movl	$0, %eax
	jmp	.L51
.L54:
	nop
.L45:
	call	getchar@PLT
	movl	%eax, -88(%rbp)
	cmpl	$10, -88(%rbp)
	je	.L44
	cmpl	$-1, -88(%rbp)
	jne	.L45
.L44:
	leaq	.LC35(%rip), %rax
	movq	%rax, %rdi
	movl	$0, %eax
	call	printf@PLT
	leaq	-101(%rbp), %rax
	movq	%rax, %rsi
	leaq	.LC36(%rip), %rax
	movq	%rax, %rdi
	movl	$0, %eax
	call	__isoc99_scanf@PLT
	movzbl	-101(%rbp), %eax
	cmpb	$109, %al
	jg	.L46
	movzbl	-101(%rbp), %eax
	addl	$32, %eax
	movb	%al, -101(%rbp)
.L46:
	movzbl	-101(%rbp), %eax
	cmpb	$121, %al
	je	.L47
	movzbl	-101(%rbp), %eax
	cmpb	$110, %al
	jne	.L48
.L47:
	movzbl	-101(%rbp), %eax
	movsbl	%al, %eax
	cmpl	$121, %eax
	jne	.L49
	movl	-100(%rbp), %eax
	addl	$53, %eax
	jmp	.L51
.L49:
	movl	-100(%rbp), %eax
	addl	$13, %eax
	jmp	.L51
.L48:
	leaq	.LC37(%rip), %rax
	movq	%rax, %rdi
	call	puts@PLT
	movl	$0, %eax
.L51:
	movq	-8(%rbp), %rdx
	subq	%fs:40, %rdx
	je	.L52
	call	__stack_chk_fail@PLT
.L52:
	leave
	.cfi_def_cfa 7, 8
	ret
	.cfi_endproc
.LFE8:
	.size	emoInput, .-emoInput
	.section	.rodata
.LC38:
	.string	"Angel with a Shotgun"
.LC39:
	.string	"Rockefeller Street"
.LC40:
	.string	"Teeth"
.LC41:
	.string	"Thunder"
.LC42:
	.string	"Take a Hint"
.LC43:
	.string	"How to be a Heartbreaker"
.LC44:
	.string	"Light it Up"
.LC45:
	.string	"Pretty Rave Girl"
	.align 8
.LC46:
	.string	"Please select a poison(1-%d) or Ctrl+C to exit:"
	.text
	.globl	nightcoreInput
	.type	nightcoreInput, @function
nightcoreInput:
.LFB9:
	.cfi_startproc
	endbr64
	pushq	%rbp
	.cfi_def_cfa_offset 16
	.cfi_offset 6, -16
	movq	%rsp, %rbp
	.cfi_def_cfa_register 6
	subq	$96, %rsp
	movq	%fs:40, %rax
	movq	%rax, -8(%rbp)
	xorl	%eax, %eax
	movl	$-1, -96(%rbp)
	leaq	.LC38(%rip), %rax
	movq	%rax, -80(%rbp)
	leaq	.LC39(%rip), %rax
	movq	%rax, -72(%rbp)
	leaq	.LC40(%rip), %rax
	movq	%rax, -64(%rbp)
	leaq	.LC41(%rip), %rax
	movq	%rax, -56(%rbp)
	leaq	.LC42(%rip), %rax
	movq	%rax, -48(%rbp)
	leaq	.LC43(%rip), %rax
	movq	%rax, -40(%rbp)
	leaq	.LC44(%rip), %rax
	movq	%rax, -32(%rbp)
	leaq	.LC45(%rip), %rax
	movq	%rax, -24(%rbp)
	movq	$0, -16(%rbp)
	movl	$9, -88(%rbp)
	movl	$0, -92(%rbp)
	leaq	.LC29(%rip), %rax
	movq	%rax, %rdi
	movl	$0, %eax
	call	printf@PLT
	jmp	.L56
.L57:
	movl	-92(%rbp), %eax
	cltq
	movq	-80(%rbp,%rax,8), %rax
	movl	-92(%rbp), %edx
	leal	1(%rdx), %ecx
	movq	%rax, %rdx
	movl	%ecx, %esi
	leaq	.LC30(%rip), %rax
	movq	%rax, %rdi
	movl	$0, %eax
	call	printf@PLT
	movl	$50000, %edi
	call	usleep@PLT
	addl	$1, -92(%rbp)
.L56:
	movl	-92(%rbp), %eax
	cltq
	movq	-80(%rbp,%rax,8), %rax
	testq	%rax, %rax
	jne	.L57
	leaq	.LC31(%rip), %rax
	movq	%rax, %rdi
	movl	$0, %eax
	call	printf@PLT
	movl	-88(%rbp), %eax
	subl	$1, %eax
	movl	%eax, %esi
	leaq	.LC46(%rip), %rax
	movq	%rax, %rdi
	movl	$0, %eax
	call	printf@PLT
	leaq	-96(%rbp), %rax
	movq	%rax, %rsi
	leaq	.LC33(%rip), %rax
	movq	%rax, %rdi
	movl	$0, %eax
	call	__isoc99_scanf@PLT
	cmpl	$1, %eax
	jne	.L65
	movl	-96(%rbp), %eax
	testl	%eax, %eax
	jle	.L65
	movl	-96(%rbp), %eax
	cmpl	$8, %eax
	jle	.L59
.L65:
	nop
.L61:
	call	getchar@PLT
	movl	%eax, -84(%rbp)
	cmpl	$10, -84(%rbp)
	je	.L60
	cmpl	$-1, -84(%rbp)
	jne	.L61
.L60:
	leaq	.LC34(%rip), %rax
	movq	%rax, %rdi
	call	puts@PLT
	movl	$0, %eax
	jmp	.L63
.L59:
	movl	-96(%rbp), %eax
.L63:
	movq	-8(%rbp), %rdx
	subq	%fs:40, %rdx
	je	.L64
	call	__stack_chk_fail@PLT
.L64:
	leave
	.cfi_def_cfa 7, 8
	ret
	.cfi_endproc
.LFE9:
	.size	nightcoreInput, .-nightcoreInput
	.section	.rodata
.LC53:
	.string	"\033[38;2;%d;%d;%dm%c"
	.text
	.globl	epilepsy_typewriter
	.type	epilepsy_typewriter, @function
epilepsy_typewriter:
.LFB10:
	.cfi_startproc
	endbr64
	pushq	%rbp
	.cfi_def_cfa_offset 16
	.cfi_offset 6, -16
	movq	%rsp, %rbp
	.cfi_def_cfa_register 6
	subq	$48, %rsp
	movq	%rdi, -40(%rbp)
	leaq	.LC19(%rip), %rax
	movq	%rax, %rdi
	movl	$0, %eax
	call	printf@PLT
	movq	$0, -8(%rbp)
	jmp	.L67
.L70:
	pxor	%xmm1, %xmm1
	cvtsi2sdq	-8(%rbp), %xmm1
	movsd	.LC47(%rip), %xmm0
	mulsd	%xmm0, %xmm1
	movsd	.LC48(%rip), %xmm0
	mulsd	%xmm0, %xmm1
	movq	%xmm1, %rax
	movq	%rax, %xmm0
	call	sin@PLT
	movsd	.LC49(%rip), %xmm1
	mulsd	%xmm0, %xmm1
	movsd	.LC50(%rip), %xmm0
	addsd	%xmm1, %xmm0
	cvttsd2sil	%xmm0, %eax
	movl	%eax, -20(%rbp)
	pxor	%xmm1, %xmm1
	cvtsi2sdq	-8(%rbp), %xmm1
	movsd	.LC47(%rip), %xmm0
	mulsd	%xmm0, %xmm1
	movsd	.LC48(%rip), %xmm0
	mulsd	%xmm0, %xmm1
	movsd	.LC51(%rip), %xmm0
	addsd	%xmm0, %xmm1
	movq	%xmm1, %rax
	movq	%rax, %xmm0
	call	sin@PLT
	movsd	.LC49(%rip), %xmm1
	mulsd	%xmm0, %xmm1
	movsd	.LC50(%rip), %xmm0
	addsd	%xmm1, %xmm0
	cvttsd2sil	%xmm0, %eax
	movl	%eax, -16(%rbp)
	pxor	%xmm1, %xmm1
	cvtsi2sdq	-8(%rbp), %xmm1
	movsd	.LC47(%rip), %xmm0
	mulsd	%xmm0, %xmm1
	movsd	.LC48(%rip), %xmm0
	mulsd	%xmm0, %xmm1
	movsd	.LC52(%rip), %xmm0
	addsd	%xmm0, %xmm1
	movq	%xmm1, %rax
	movq	%rax, %xmm0
	call	sin@PLT
	movsd	.LC49(%rip), %xmm1
	mulsd	%xmm0, %xmm1
	movsd	.LC50(%rip), %xmm0
	addsd	%xmm1, %xmm0
	cvttsd2sil	%xmm0, %eax
	movl	%eax, -12(%rbp)
	movq	-40(%rbp), %rax
	movzbl	(%rax), %eax
	movsbl	%al, %esi
	movl	-12(%rbp), %ecx
	movl	-16(%rbp), %edx
	movl	-20(%rbp), %eax
	movl	%esi, %r8d
	movl	%eax, %esi
	leaq	.LC53(%rip), %rax
	movq	%rax, %rdi
	movl	$0, %eax
	call	printf@PLT
	movq	stdout(%rip), %rax
	movq	%rax, %rdi
	call	fflush@PLT
	movq	-40(%rbp), %rax
	movzbl	(%rax), %eax
	cmpb	$10, %al
	jne	.L68
	movl	$450000, %edi
	call	usleep@PLT
	jmp	.L69
.L68:
	movl	$15555, %edi
	call	usleep@PLT
.L69:
	addq	$1, -40(%rbp)
	addq	$1, -8(%rbp)
.L67:
	movq	-40(%rbp), %rax
	movzbl	(%rax), %eax
	testb	%al, %al
	jne	.L70
	leaq	.LC31(%rip), %rax
	movq	%rax, %rdi
	movl	$0, %eax
	call	printf@PLT
	nop
	leave
	.cfi_def_cfa 7, 8
	ret
	.cfi_endproc
.LFE10:
	.size	epilepsy_typewriter, .-epilepsy_typewriter
	.section	.rodata
.LC54:
	.string	"\033[?25l"
.LC55:
	.string	"%c\007"
	.text
	.globl	typewriter
	.type	typewriter, @function
typewriter:
.LFB11:
	.cfi_startproc
	endbr64
	pushq	%rbp
	.cfi_def_cfa_offset 16
	.cfi_offset 6, -16
	movq	%rsp, %rbp
	.cfi_def_cfa_register 6
	subq	$16, %rsp
	movq	%rdi, -8(%rbp)
	leaq	.LC54(%rip), %rax
	movq	%rax, %rdi
	movl	$0, %eax
	call	printf@PLT
	leaq	.LC19(%rip), %rax
	movq	%rax, %rdi
	movl	$0, %eax
	call	printf@PLT
	movl	$250000, %edi
	call	usleep@PLT
	jmp	.L72
.L75:
	movq	-8(%rbp), %rax
	movzbl	(%rax), %eax
	cmpb	$10, %al
	jne	.L73
	movl	$350000, %edi
	call	usleep@PLT
	movq	-8(%rbp), %rax
	movzbl	(%rax), %eax
	movsbl	%al, %eax
	movl	%eax, %esi
	leaq	.LC55(%rip), %rax
	movq	%rax, %rdi
	movl	$0, %eax
	call	printf@PLT
	jmp	.L74
.L73:
	movq	-8(%rbp), %rax
	movzbl	(%rax), %eax
	movsbl	%al, %eax
	movl	%eax, %edi
	call	putchar@PLT
	movl	$10000, %edi
	call	usleep@PLT
.L74:
	addq	$1, -8(%rbp)
.L72:
	movq	-8(%rbp), %rax
	movzbl	(%rax), %eax
	testb	%al, %al
	jne	.L75
	nop
	nop
	leave
	.cfi_def_cfa 7, 8
	ret
	.cfi_endproc
.LFE11:
	.size	typewriter, .-typewriter
	.section	.rodata
	.align 8
.LC56:
	.string	"\033[1m\t\t _-JUST A SHITTY JUKEBOX-_\n\033[0m"
.LC57:
	.string	"\033[1mGenres\n\033[0m"
.LC58:
	.string	"1)%s\n"
.LC59:
	.string	"2)%s\n\n"
	.align 8
.LC60:
	.string	"Select one genre to see it's special menu(1-2):"
	.align 8
.LC61:
	.string	"Bro how hard can it be to pick 1 or 2? Delta..."
	.text
	.globl	genreMenu
	.type	genreMenu, @function
genreMenu:
.LFB12:
	.cfi_startproc
	endbr64
	pushq	%rbp
	.cfi_def_cfa_offset 16
	.cfi_offset 6, -16
	movq	%rsp, %rbp
	.cfi_def_cfa_register 6
	subq	$16, %rsp
	movq	%fs:40, %rax
	movq	%rax, -8(%rbp)
	xorl	%eax, %eax
	movl	$-1, -16(%rbp)
	leaq	.LC19(%rip), %rax
	movq	%rax, %rdi
	movl	$0, %eax
	call	printf@PLT
	leaq	.LC56(%rip), %rax
	movq	%rax, %rdi
	movl	$0, %eax
	call	printf@PLT
	leaq	.LC57(%rip), %rax
	movq	%rax, %rdi
	movl	$0, %eax
	call	printf@PLT
	movq	genres(%rip), %rax
	movq	%rax, %rsi
	leaq	.LC58(%rip), %rax
	movq	%rax, %rdi
	movl	$0, %eax
	call	printf@PLT
	movq	8+genres(%rip), %rax
	movq	%rax, %rsi
	leaq	.LC59(%rip), %rax
	movq	%rax, %rdi
	movl	$0, %eax
	call	printf@PLT
	leaq	.LC60(%rip), %rax
	movq	%rax, %rdi
	movl	$0, %eax
	call	printf@PLT
	leaq	-16(%rbp), %rax
	movq	%rax, %rsi
	leaq	.LC33(%rip), %rax
	movq	%rax, %rdi
	movl	$0, %eax
	call	__isoc99_scanf@PLT
	cmpl	$1, %eax
	jne	.L84
	movl	-16(%rbp), %eax
	testl	%eax, %eax
	jle	.L84
	movl	-16(%rbp), %eax
	cmpl	$2, %eax
	jle	.L78
.L84:
	nop
.L80:
	call	getchar@PLT
	movl	%eax, -12(%rbp)
	cmpl	$10, -12(%rbp)
	je	.L79
	cmpl	$-1, -12(%rbp)
	jne	.L80
.L79:
	leaq	.LC61(%rip), %rax
	movq	%rax, %rdi
	call	puts@PLT
	movl	$0, %eax
	jmp	.L82
.L78:
	movl	-16(%rbp), %eax
.L82:
	movq	-8(%rbp), %rdx
	subq	%fs:40, %rdx
	je	.L83
	call	__stack_chk_fail@PLT
.L83:
	leave
	.cfi_def_cfa 7, 8
	ret
	.cfi_endproc
.LFE12:
	.size	genreMenu, .-genreMenu
	.section	.rodata
	.align 8
.LC47:
	.long	-858993459
	.long	1071434956
	.align 8
.LC48:
	.long	-1717986918
	.long	1070176665
	.align 8
.LC49:
	.long	0
	.long	1080016896
	.align 8
.LC50:
	.long	0
	.long	1080033280
	.align 8
.LC51:
	.long	0
	.long	1073741824
	.align 8
.LC52:
	.long	0
	.long	1074790400
	.ident	"GCC: (Ubuntu 13.3.0-6ubuntu2~24.04) 13.3.0"
	.section	.note.GNU-stack,"",@progbits
	.section	.note.gnu.property,"a"
	.align 8
	.long	1f - 0f
	.long	4f - 1f
	.long	5
0:
	.string	"GNU"
1:
	.align 8
	.long	0xc0000002
	.long	3f - 2f
2:
	.long	0x3
3:
	.align 8
4:
